target datalayout = "e-m:e-p270:32:32-p271:32:32-p272:64:64-i64:64-i128:128-f80:128-n8:16:32:64-S128"
target triple = "x86_64-pc-linux-gnu"

%struct.yyParser = type { ptr, i32, ptr, [100 x %struct.yyStackEntry], ptr }
%struct.yyStackEntry = type { i8, i8, %union.YYMINORTYPE }
%union.YYMINORTYPE = type { ptr }

; Function Attrs: null_pointer_is_valid sspstrong uwtable
define internal void @yy_destructor(ptr noundef %0, i8 noundef zeroext %1, ptr noundef %2) #2 {
  %4 = alloca ptr, align 8
  %5 = alloca i8, align 1
  %6 = alloca ptr, align 8
  %7 = alloca ptr, align 8
  store ptr %0, ptr %4, align 8
  store i8 %1, ptr %5, align 1
  store ptr %2, ptr %6, align 8
  call void @llvm.lifetime.start.p0(i64 8, ptr %7) #4
  %8 = load ptr, ptr %4, align 8
  %9 = getelementptr inbounds nuw %struct.yyParser, ptr %8, i32 0, i32 2
  %10 = load ptr, ptr %9, align 8
  store ptr %10, ptr %7, align 8
  %11 = load i8, ptr %5, align 1
  %12 = zext i8 %11 to i32
  switch i32 %12, label %28 [
    i32 1, label %13
    i32 2, label %13
    i32 3, label %13
    i32 4, label %13
    i32 5, label %13
    i32 6, label %13
    i32 7, label %13
    i32 8, label %13
    i32 9, label %13
    i32 10, label %13
    i32 11, label %13
    i32 12, label %13
    i32 13, label %13
    i32 14, label %13
    i32 15, label %13
    i32 16, label %13
    i32 17, label %13
    i32 18, label %13
    i32 19, label %13
    i32 20, label %13
    i32 21, label %13
    i32 22, label %13
    i32 23, label %13
    i32 24, label %13
    i32 25, label %13
    i32 26, label %13
    i32 27, label %13
    i32 28, label %13
    i32 29, label %13
    i32 30, label %13
    i32 31, label %13
    i32 32, label %13
    i32 33, label %13
    i32 34, label %13
    i32 35, label %13
    i32 36, label %13
    i32 37, label %13
    i32 38, label %13
    i32 39, label %13
    i32 40, label %13
    i32 41, label %13
    i32 42, label %13
    i32 43, label %13
    i32 44, label %13
    i32 45, label %13
    i32 50, label %16
    i32 51, label %16
    i32 52, label %16
    i32 53, label %16
    i32 54, label %16
    i32 55, label %16
    i32 56, label %16
    i32 57, label %16
    i32 58, label %16
    i32 59, label %16
    i32 60, label %16
    i32 61, label %16
    i32 62, label %16
    i32 63, label %16
    i32 64, label %16
    i32 65, label %16
    i32 46, label %19
    i32 47, label %22
    i32 48, label %25
    i32 49, label %25
  ]

13:                                               ; preds = %3, %3, %3, %3, %3, %3, %3, %3, %3, %3, %3, %3, %3, %3, %3, %3, %3, %3, %3, %3, %3, %3, %3, %3, %3, %3, %3, %3, %3, %3, %3, %3, %3, %3, %3, %3, %3, %3, %3, %3, %3, %3, %3, %3, %3
  %14 = load ptr, ptr %6, align 8
  %15 = load ptr, ptr %14, align 8
  call void @stnode_free(ptr noundef %15)
  br label %29

16:                                               ; preds = %3, %3, %3, %3, %3, %3, %3, %3, %3, %3, %3, %3, %3, %3, %3, %3
  %17 = load ptr, ptr %6, align 8
  %18 = load ptr, ptr %17, align 8
  call void @stnode_free(ptr noundef %18)
  br label %29

19:                                               ; preds = %3
  %20 = load ptr, ptr %6, align 8
  %21 = load ptr, ptr %20, align 8
  call void @drange_node_free_list(ptr noundef %21)
  br label %29

22:                                               ; preds = %3
  %23 = load ptr, ptr %6, align 8
  %24 = load ptr, ptr %23, align 8
  call void @st_funcparams_free(ptr noundef %24)
  br label %29

25:                                               ; preds = %3, %3
  %26 = load ptr, ptr %6, align 8
  %27 = load ptr, ptr %26, align 8
  call void @set_nodelist_free(ptr noundef %27)
  br label %29

28:                                               ; preds = %3
  br label %29

29:                                               ; preds = %28, %25, %22, %19, %16, %13
  call void @llvm.lifetime.end.p0(i64 8, ptr %7) #4
  ret void
}