; Function Attrs: null_pointer_is_valid sspstrong uwtable
define internal fastcc void @yy_destructor(i8 noundef zeroext %0, ptr noundef readonly captures(none) %1) unnamed_addr #2 {
  switch i8 %0, label %13 [
    i8 1, label %3
    i8 2, label %3
    i8 3, label %3
    i8 4, label %3
    i8 5, label %3
    i8 6, label %3
    i8 7, label %3
    i8 8, label %3
    i8 9, label %3
    i8 10, label %3
    i8 11, label %3
    i8 12, label %3
    i8 13, label %3
    i8 14, label %3
    i8 15, label %3
    i8 16, label %3
    i8 17, label %3
    i8 18, label %3
    i8 19, label %3
    i8 20, label %3
    i8 21, label %3
    i8 22, label %3
    i8 23, label %3
    i8 24, label %3
    i8 25, label %3
    i8 26, label %3
    i8 27, label %3
    i8 28, label %3
    i8 29, label %3
    i8 30, label %3
    i8 31, label %3
    i8 32, label %3
    i8 33, label %3
    i8 34, label %3
    i8 35, label %3
    i8 36, label %3
    i8 37, label %3
    i8 38, label %3
    i8 39, label %3
    i8 40, label %3
    i8 41, label %3
    i8 42, label %3
    i8 43, label %3
    i8 44, label %3
    i8 45, label %3
    i8 50, label %5
    i8 51, label %5
    i8 52, label %5
    i8 53, label %5
    i8 54, label %5
    i8 55, label %5
    i8 56, label %5
    i8 57, label %5
    i8 58, label %5
    i8 59, label %5
    i8 60, label %5
    i8 61, label %5
    i8 62, label %5
    i8 63, label %5
    i8 64, label %5
    i8 65, label %5
    i8 46, label %7
    i8 47, label %9
    i8 48, label %11
    i8 49, label %11
  ]

3:                                                ; preds = %2, %2, %2, %2, %2, %2, %2, %2, %2, %2, %2, %2, %2, %2, %2, %2, %2, %2, %2, %2, %2, %2, %2, %2, %2, %2, %2, %2, %2, %2, %2, %2, %2, %2, %2, %2, %2, %2, %2, %2, %2, %2, %2, %2, %2
  %4 = load ptr, ptr %1, align 8
  tail call void @stnode_free(ptr noundef %4)
  br label %13

5:                                                ; preds = %2, %2, %2, %2, %2, %2, %2, %2, %2, %2, %2, %2, %2, %2, %2, %2
  %6 = load ptr, ptr %1, align 8
  tail call void @stnode_free(ptr noundef %6)
  br label %13

7:                                                ; preds = %2
  %8 = load ptr, ptr %1, align 8
  tail call void @drange_node_free_list(ptr noundef %8)
  br label %13

9:                                                ; preds = %2
  %10 = load ptr, ptr %1, align 8
  tail call void @st_funcparams_free(ptr noundef %10)
  br label %13

11:                                               ; preds = %2, %2
  %12 = load ptr, ptr %1, align 8
  tail call void @set_nodelist_free(ptr noundef %12)
  br label %13

13:                                               ; preds = %2, %11, %9, %7, %5, %3
  ret void
}